; Function Attrs: mustprogress uwtable
define hidden void @_ZN2cv26compute_scharr_derivativesERKNS_3MatERS0_iii(ptr noundef nonnull align 8 dereferenceable(96) %0, ptr noundef nonnull align 8 dereferenceable(96) %1, i32 noundef %2, i32 noundef %3, i32 noundef %4) local_unnamed_addr #3 personality ptr @__gxx_personality_v0 {
  %6 = alloca %"class.cv::Mat", align 8
  %7 = alloca %"class.cv::Mat", align 8
  %8 = alloca %"class.cv::_OutputArray", align 8
  %9 = alloca %"class.cv::_OutputArray", align 8
  %10 = alloca %"class.cv::_InputArray", align 8
  %11 = alloca %"class.cv::_OutputArray", align 8
  %12 = alloca %"class.cv::_InputArray", align 8
  %13 = alloca %"class.cv::_InputArray", align 8
  call void @llvm.lifetime.start.p0(i64 96, ptr nonnull %6) #19
  call void @_ZN2cv3MatC1Ev(ptr noundef nonnull align 8 dereferenceable(96) %6) #19
  call void @llvm.lifetime.start.p0(i64 96, ptr nonnull %7) #19
  call void @_ZN2cv3MatC1Ev(ptr noundef nonnull align 8 dereferenceable(96) %7) #19
  call void @llvm.lifetime.start.p0(i64 24, ptr nonnull %8) #19
  %14 = getelementptr inbounds nuw i8, ptr %8, i64 8
  %15 = getelementptr inbounds nuw i8, ptr %8, i64 16
  store i64 0, ptr %15, align 8
  store i32 33619968, ptr %8, align 8, !tbaa !9
  store ptr %6, ptr %14, align 8, !tbaa !12
  call void @llvm.lifetime.start.p0(i64 24, ptr nonnull %9) #19
  %16 = getelementptr inbounds nuw i8, ptr %9, i64 8
  %17 = getelementptr inbounds nuw i8, ptr %9, i64 16
  store i64 0, ptr %17, align 8
  store i32 33619968, ptr %9, align 8, !tbaa !9
  store ptr %7, ptr %16, align 8, !tbaa !12
  invoke void @_ZN2cv26compute_derivative_kernelsERKNS_12_OutputArrayES2_iii(ptr noundef nonnull align 8 dereferenceable(24) %8, ptr noundef nonnull align 8 dereferenceable(24) %9, i32 noundef %2, i32 noundef %3, i32 noundef %4)
          to label %18 unwind label %31

18:                                               ; preds = %5
  call void @llvm.lifetime.end.p0(i64 24, ptr nonnull %9) #19
  call void @llvm.lifetime.end.p0(i64 24, ptr nonnull %8) #19
  call void @llvm.lifetime.start.p0(i64 24, ptr nonnull %10) #19
  %19 = getelementptr inbounds nuw i8, ptr %10, i64 16
  store i32 0, ptr %19, align 8, !tbaa !3
  %20 = getelementptr inbounds nuw i8, ptr %10, i64 20
  store i32 0, ptr %20, align 4, !tbaa !8
  store i32 16842752, ptr %10, align 8, !tbaa !9
  %21 = getelementptr inbounds nuw i8, ptr %10, i64 8
  store ptr %0, ptr %21, align 8, !tbaa !12
  call void @llvm.lifetime.start.p0(i64 24, ptr nonnull %11) #19
  %22 = getelementptr inbounds nuw i8, ptr %11, i64 8
  %23 = getelementptr inbounds nuw i8, ptr %11, i64 16
  store i64 0, ptr %23, align 8
  store i32 33619968, ptr %11, align 8, !tbaa !9
  store ptr %1, ptr %22, align 8, !tbaa !12
  call void @llvm.lifetime.start.p0(i64 24, ptr nonnull %12) #19
  %24 = getelementptr inbounds nuw i8, ptr %12, i64 16
  store i32 0, ptr %24, align 8, !tbaa !3
  %25 = getelementptr inbounds nuw i8, ptr %12, i64 20
  store i32 0, ptr %25, align 4, !tbaa !8
  store i32 16842752, ptr %12, align 8, !tbaa !9
  %26 = getelementptr inbounds nuw i8, ptr %12, i64 8
  store ptr %6, ptr %26, align 8, !tbaa !12
  call void @llvm.lifetime.start.p0(i64 24, ptr nonnull %13) #19
  %27 = getelementptr inbounds nuw i8, ptr %13, i64 16
  store i32 0, ptr %27, align 8, !tbaa !3
  %28 = getelementptr inbounds nuw i8, ptr %13, i64 20
  store i32 0, ptr %28, align 4, !tbaa !8
  store i32 16842752, ptr %13, align 8, !tbaa !9
  %29 = getelementptr inbounds nuw i8, ptr %13, i64 8
  store ptr %7, ptr %29, align 8, !tbaa !12
  invoke void @_ZN2cv11sepFilter2DERKNS_11_InputArrayERKNS_12_OutputArrayEiS2_S2_NS_6Point_IiEEdi(ptr noundef nonnull align 8 dereferenceable(24) %10, ptr noundef nonnull align 8 dereferenceable(24) %11, i32 noundef 5, ptr noundef nonnull align 8 dereferenceable(24) %12, ptr noundef nonnull align 8 dereferenceable(24) %13, i64 -1, double noundef 0.000000e+00, i32 noundef 4)
          to label %30 unwind label %33

30:                                               ; preds = %18
  call void @llvm.lifetime.end.p0(i64 24, ptr nonnull %13) #19
  call void @llvm.lifetime.end.p0(i64 24, ptr nonnull %12) #19
  call void @llvm.lifetime.end.p0(i64 24, ptr nonnull %11) #19
  call void @llvm.lifetime.end.p0(i64 24, ptr nonnull %10) #19
  call void @_ZN2cv3MatD1Ev(ptr noundef nonnull align 8 dereferenceable(96) %7) #19
  call void @llvm.lifetime.end.p0(i64 96, ptr nonnull %7) #19
  call void @_ZN2cv3MatD1Ev(ptr noundef nonnull align 8 dereferenceable(96) %6) #19
  call void @llvm.lifetime.end.p0(i64 96, ptr nonnull %6) #19
  ret void

31:                                               ; preds = %5
  %32 = landingpad { ptr, i32 }
          cleanup
  call void @llvm.lifetime.end.p0(i64 24, ptr nonnull %9) #19
  call void @llvm.lifetime.end.p0(i64 24, ptr nonnull %8) #19
  br label %35

33:                                               ; preds = %18
  %34 = landingpad { ptr, i32 }
          cleanup
  call void @llvm.lifetime.end.p0(i64 24, ptr nonnull %13) #19
  call void @llvm.lifetime.end.p0(i64 24, ptr nonnull %12) #19
  call void @llvm.lifetime.end.p0(i64 24, ptr nonnull %11) #19
  call void @llvm.lifetime.end.p0(i64 24, ptr nonnull %10) #19
  br label %35

35:                                               ; preds = %33, %31
  %.pn15.pn.pn.pn.pn = phi { ptr, i32 } [ %34, %33 ], [ %32, %31 ]
  call void @_ZN2cv3MatD1Ev(ptr noundef nonnull align 8 dereferenceable(96) %7) #19
  call void @llvm.lifetime.end.p0(i64 96, ptr nonnull %7) #19
  call void @_ZN2cv3MatD1Ev(ptr noundef nonnull align 8 dereferenceable(96) %6) #19
  call void @llvm.lifetime.end.p0(i64 96, ptr nonnull %6) #19
  resume { ptr, i32 } %.pn15.pn.pn.pn.pn
}